; Function Attrs: nounwind uwtable
define void @_ZTv0_n24_N14duckdb_parquet11OffsetIndexD1Ev(ptr noundef captures(none) %0) unnamed_addr #5 align 2 personality ptr @__gxx_personality_v0 {
  %2 = load ptr, ptr %0, align 8, !tbaa !22
  %3 = getelementptr inbounds i8, ptr %2, i64 -24
  %4 = load i64, ptr %3, align 8
  %5 = getelementptr inbounds i8, ptr %0, i64 %4
  store ptr getelementptr inbounds nuw inrange(-48, 40) (i8, ptr @_ZTVN14duckdb_parquet11OffsetIndexE, i64 48), ptr %5, align 8, !tbaa !22
  %6 = getelementptr inbounds nuw i8, ptr %5, i64 32
  %7 = load ptr, ptr %6, align 8, !tbaa !75
  %.not.i.i.i.i.i = icmp eq ptr %7, null
  br i1 %.not.i.i.i.i.i, label %_ZNSt6vectorIlSaIlEED2Ev.exit.i.i, label %8

8:                                                ; preds = %1
  tail call void @_ZdlPv(ptr noundef nonnull %7) #28
  br label %_ZNSt6vectorIlSaIlEED2Ev.exit.i.i

_ZNSt6vectorIlSaIlEED2Ev.exit.i.i:                ; preds = %8, %1
  %9 = getelementptr inbounds nuw i8, ptr %5, i64 8
  %10 = load ptr, ptr %9, align 8, !tbaa !710
  %11 = getelementptr inbounds nuw i8, ptr %5, i64 16
  %12 = load ptr, ptr %11, align 8, !tbaa !713
  %.not4.i.i.i.i.i.i = icmp eq ptr %10, %12
  br i1 %.not4.i.i.i.i.i.i, label %_ZSt8_DestroyIPN14duckdb_parquet12PageLocationES1_EvT_S3_RSaIT0_E.exit.i.i.i, label %.lr.ph.i.i.i.i.i.i

.lr.ph.i.i.i.i.i.i:                               ; preds = %_ZNSt6vectorIlSaIlEED2Ev.exit.i.i, %.lr.ph.i.i.i.i.i.i
  %.05.i.i.i.i.i.i = phi ptr [ %15, %.lr.ph.i.i.i.i.i.i ], [ %10, %_ZNSt6vectorIlSaIlEED2Ev.exit.i.i ]
  %13 = load ptr, ptr %.05.i.i.i.i.i.i, align 8, !tbaa !22
  %14 = load ptr, ptr %13, align 8
  tail call void %14(ptr noundef nonnull align 8 dereferenceable(32) %.05.i.i.i.i.i.i) #26
  %15 = getelementptr inbounds nuw i8, ptr %.05.i.i.i.i.i.i, i64 32
  %.not.i.i.i.i.i.i = icmp eq ptr %15, %12
  br i1 %.not.i.i.i.i.i.i, label %_ZSt8_DestroyIPN14duckdb_parquet12PageLocationES1_EvT_S3_RSaIT0_E.exitthread-pre-split.i.i.i, label %.lr.ph.i.i.i.i.i.i, !llvm.loop !714

_ZSt8_DestroyIPN14duckdb_parquet12PageLocationES1_EvT_S3_RSaIT0_E.exitthread-pre-split.i.i.i: ; preds = %.lr.ph.i.i.i.i.i.i
  %.pr.i.i.i = load ptr, ptr %9, align 8, !tbaa !710
  br label %_ZSt8_DestroyIPN14duckdb_parquet12PageLocationES1_EvT_S3_RSaIT0_E.exit.i.i.i

_ZSt8_DestroyIPN14duckdb_parquet12PageLocationES1_EvT_S3_RSaIT0_E.exit.i.i.i: ; preds = %_ZSt8_DestroyIPN14duckdb_parquet12PageLocationES1_EvT_S3_RSaIT0_E.exitthread-pre-split.i.i.i, %_ZNSt6vectorIlSaIlEED2Ev.exit.i.i
  %16 = phi ptr [ %.pr.i.i.i, %_ZSt8_DestroyIPN14duckdb_parquet12PageLocationES1_EvT_S3_RSaIT0_E.exitthread-pre-split.i.i.i ], [ %10, %_ZNSt6vectorIlSaIlEED2Ev.exit.i.i ]
  %.not.i.i.i2.i.i = icmp eq ptr %16, null
  br i1 %.not.i.i.i2.i.i, label %_ZN14duckdb_parquet11OffsetIndexD1Ev.exit, label %17

17:                                               ; preds = %_ZSt8_DestroyIPN14duckdb_parquet12PageLocationES1_EvT_S3_RSaIT0_E.exit.i.i.i
  tail call void @_ZdlPv(ptr noundef nonnull %16) #28
  br label %_ZN14duckdb_parquet11OffsetIndexD1Ev.exit

_ZN14duckdb_parquet11OffsetIndexD1Ev.exit:        ; preds = %_ZSt8_DestroyIPN14duckdb_parquet12PageLocationES1_EvT_S3_RSaIT0_E.exit.i.i.i, %17
  ret void
}